target datalayout = "e-m:e-p270:32:32-p271:32:32-p272:64:64-i64:64-i128:128-f80:128-n8:16:32:64-S128"
target triple = "x86_64-pc-linux-gnu"

%struct.mscab_decompressor_p = type { %struct.mscab_decompressor, ptr, ptr, i32, i32, i32, i32, i32, i32 }
%struct.mscab_decompressor = type { ptr, ptr, ptr, ptr, ptr, ptr, ptr, ptr }

; Function Attrs: nounwind uwtable
define internal i32 @cabd_param(ptr noundef %0, i32 noundef %1, i32 noundef %2) #0 {
  %4 = alloca i32, align 4
  %5 = alloca ptr, align 8
  %6 = alloca i32, align 4
  %7 = alloca i32, align 4
  %8 = alloca ptr, align 8
  %9 = alloca i32, align 4
  store ptr %0, ptr %5, align 8, !tbaa !31
  store i32 %1, ptr %6, align 4, !tbaa !48
  store i32 %2, ptr %7, align 4, !tbaa !48
  call void @llvm.lifetime.start.p0(i64 8, ptr %8) #4
  %10 = load ptr, ptr %5, align 8, !tbaa !31
  store ptr %10, ptr %8, align 8, !tbaa !8
  %11 = load ptr, ptr %8, align 8, !tbaa !8
  %12 = icmp ne ptr %11, null
  br i1 %12, label %14, label %13

13:                                               ; preds = %3
  store i32 1, ptr %4, align 4
  store i32 1, ptr %9, align 4
  br label %42

14:                                               ; preds = %3
  %15 = load i32, ptr %6, align 4, !tbaa !48
  switch i32 %15, label %40 [
    i32 0, label %16
    i32 1, label %24
    i32 2, label %28
    i32 3, label %36
  ]

16:                                               ; preds = %14
  %17 = load i32, ptr %7, align 4, !tbaa !48
  %18 = icmp slt i32 %17, 4
  br i1 %18, label %19, label %20

19:                                               ; preds = %16
  store i32 1, ptr %4, align 4
  store i32 1, ptr %9, align 4
  br label %42

20:                                               ; preds = %16
  %21 = load i32, ptr %7, align 4, !tbaa !48
  %22 = load ptr, ptr %8, align 8, !tbaa !8
  %23 = getelementptr inbounds nuw %struct.mscab_decompressor_p, ptr %22, i32 0, i32 4
  store i32 %21, ptr %23, align 4, !tbaa !27
  br label %41

24:                                               ; preds = %14
  %25 = load i32, ptr %7, align 4, !tbaa !48
  %26 = load ptr, ptr %8, align 8, !tbaa !8
  %27 = getelementptr inbounds nuw %struct.mscab_decompressor_p, ptr %26, i32 0, i32 5
  store i32 %25, ptr %27, align 8, !tbaa !28
  br label %41

28:                                               ; preds = %14
  %29 = load i32, ptr %7, align 4, !tbaa !48
  %30 = icmp slt i32 %29, 4
  br i1 %30, label %31, label %32

31:                                               ; preds = %28
  store i32 1, ptr %4, align 4
  store i32 1, ptr %9, align 4
  br label %42

32:                                               ; preds = %28
  %33 = load i32, ptr %7, align 4, !tbaa !48
  %34 = load ptr, ptr %8, align 8, !tbaa !8
  %35 = getelementptr inbounds nuw %struct.mscab_decompressor_p, ptr %34, i32 0, i32 3
  store i32 %33, ptr %35, align 8, !tbaa !29
  br label %41

36:                                               ; preds = %14
  %37 = load i32, ptr %7, align 4, !tbaa !48
  %38 = load ptr, ptr %8, align 8, !tbaa !8
  %39 = getelementptr inbounds nuw %struct.mscab_decompressor_p, ptr %38, i32 0, i32 6
  store i32 %37, ptr %39, align 4, !tbaa !30
  br label %41

40:                                               ; preds = %14
  store i32 1, ptr %4, align 4
  store i32 1, ptr %9, align 4
  br label %42

41:                                               ; preds = %36, %32, %24, %20
  store i32 0, ptr %4, align 4
  store i32 1, ptr %9, align 4
  br label %42

42:                                               ; preds = %41, %40, %31, %19, %13
  call void @llvm.lifetime.end.p0(i64 8, ptr %8) #4
  %43 = load i32, ptr %4, align 4
  ret i32 %43
}