; Function Attrs: mustprogress nofree norecurse nosync nounwind willreturn memory(argmem: write) uwtable
define internal range(i32 0, 2) i32 @cabd_param(ptr noundef writeonly %0, i32 noundef %1, i32 noundef %2) #3 {
  %.not = icmp eq ptr %0, null
  br i1 %.not, label %17, label %4

4:                                                ; preds = %3
  switch i32 %1, label %17 [
    i32 0, label %5
    i32 1, label %9
    i32 2, label %11
    i32 3, label %15
  ]

5:                                                ; preds = %4
  %6 = icmp slt i32 %2, 4
  br i1 %6, label %17, label %7

7:                                                ; preds = %5
  %8 = getelementptr inbounds nuw i8, ptr %0, i64 84
  store i32 %2, ptr %8, align 4, !tbaa !24
  br label %17

9:                                                ; preds = %4
  %10 = getelementptr inbounds nuw i8, ptr %0, i64 88
  store i32 %2, ptr %10, align 8, !tbaa !25
  br label %17

11:                                               ; preds = %4
  %12 = icmp slt i32 %2, 4
  br i1 %12, label %17, label %13

13:                                               ; preds = %11
  %14 = getelementptr inbounds nuw i8, ptr %0, i64 80
  store i32 %2, ptr %14, align 8, !tbaa !26
  br label %17

15:                                               ; preds = %4
  %16 = getelementptr inbounds nuw i8, ptr %0, i64 92
  store i32 %2, ptr %16, align 4, !tbaa !27
  br label %17

17:                                               ; preds = %7, %9, %13, %15, %4, %11, %5, %3
  %.0 = phi i32 [ 1, %3 ], [ 1, %5 ], [ 1, %11 ], [ 1, %4 ], [ 0, %15 ], [ 0, %13 ], [ 0, %9 ], [ 0, %7 ]
  ret i32 %.0
}